; Function Attrs: mustprogress nounwind uwtable
define void @_ZN6icu_776number4impl10StringPropD2Ev(ptr noundef nonnull align 8 captures(none) dereferenceable(16) %0) unnamed_addr #0 align 2 personality ptr @__gxx_personality_v0 {
  %2 = load ptr, ptr %0, align 8, !tbaa !15
  %.not = icmp eq ptr %2, null
  br i1 %.not, label %5, label %3

3:                                                ; preds = %1
  invoke void @uprv_free_77(ptr noundef nonnull %2)
          to label %4 unwind label %6

4:                                                ; preds = %3
  store ptr null, ptr %0, align 8, !tbaa !15
  br label %5

5:                                                ; preds = %4, %1
  ret void

6:                                                ; preds = %3
  %7 = landingpad { ptr, i32 }
          catch ptr null
  %8 = extractvalue { ptr, i32 } %7, 0
  tail call void @__clang_call_terminate(ptr %8) #17
  unreachable
}